; Function Attrs: mustprogress nofree norecurse nosync nounwind willreturn memory(argmem: write) uwtable
define void @_ZN3gmx18GpuTaskAssignmentsC2ERK13gmx_hw_info_t(ptr noundef nonnull writeonly align 8 captures(none) dereferenceable(80) initializes((0, 80)) %0, ptr noundef nonnull align 8 dereferenceable(136) %1) unnamed_addr #15 align 2 {
  store ptr %1, ptr %0, align 8, !tbaa !130
  %3 = getelementptr inbounds nuw i8, ptr %0, i64 8
  tail call void @llvm.memset.p0.i64(ptr noundef nonnull align 8 dereferenceable(24) %3, i8 0, i64 24, i1 false)
  %4 = getelementptr inbounds nuw i8, ptr %0, i64 32
  store i64 -1, ptr %4, align 8, !tbaa !94
  %5 = getelementptr inbounds nuw i8, ptr %0, i64 40
  tail call void @llvm.memset.p0.i64(ptr noundef nonnull align 8 dereferenceable(40) %5, i8 0, i64 40, i1 false)
  ret void
}